target datalayout = "e-m:e-p270:32:32-p271:32:32-p272:64:64-i64:64-i128:128-f80:128-n8:16:32:64-S128"
target triple = "x86_64-pc-linux-gnu"

%struct.job_record = type { i32, ptr, ptr, ptr, ptr, i16, i32, i32, i32, ptr, i32, ptr, ptr, i16, ptr, double, i64, ptr, ptr, ptr, ptr, ptr, ptr, i32, ptr, i32, i64, i64, i32, i32, ptr, i16, i64, i64, i8, i32, ptr, ptr, ptr, ptr, ptr, ptr, ptr, ptr, i32, ptr, ptr, i32, ptr, i32, ptr, i32, ptr, i32, ptr, ptr, ptr, ptr, ptr, ptr, i32, i16, i64, ptr, ptr, ptr, ptr, %struct.acct_policy_limit_set_t, i16, ptr, ptr, ptr, ptr, ptr, i32, ptr, ptr, ptr, ptr, ptr, i32, i32, ptr, ptr, ptr, i16, ptr, ptr, i8, ptr, ptr, i64, i64, i8, i32, i32, i8, i32, ptr, i32, i64, i32, ptr, ptr, ptr, i8, i16, i64, i32, ptr, ptr, ptr, ptr, ptr, i16, i32, ptr, ptr, ptr, ptr, i32, ptr, i32, i16, i64, ptr, i32, i32, ptr, i64, ptr, ptr, i64, i32, i32, i64, i32, i32, ptr, ptr, ptr, ptr, ptr, ptr, ptr, ptr, ptr, ptr, ptr, ptr, i32, ptr, i16, i16, i16, i16, ptr, i32, i32, i8, i64 }
%struct.acct_policy_limit_set_t = type { i16, i16, ptr }
%struct.job_details_t = type { i32, ptr, i64, ptr, i32, ptr, i64, ptr, i16, i16, ptr, i16, i32, i32, i32, i16, ptr, i16, ptr, ptr, ptr, i16, ptr, ptr, ptr, ptr, i32, ptr, ptr, ptr, ptr, ptr, i32, i32, i32, ptr, ptr, i16, i32, i32, i32, i32, i32, i32, i16, i16, i32, i8, i8, i32, i32, i64, i64, i16, i32, ptr, ptr, i8, ptr, i32, ptr, i64, ptr, ptr, i16, i16, i16, i8, ptr, ptr, ptr, ptr, ptr, ptr, i64, i32, i32, i8, ptr, i16, ptr, ptr, i16 }

; Function Attrs: nounwind uwtable
define dso_local i64 @eval_nodes_set_max_tasks(ptr noundef %0, i64 noundef %1, i32 noundef %2) #0 {
  %4 = alloca ptr, align 8
  %5 = alloca i64, align 8
  %6 = alloca i32, align 4
  %7 = alloca i32, align 4
  store ptr %0, ptr %4, align 8
  store i64 %1, ptr %5, align 8
  store i32 %2, ptr %6, align 4
  call void @llvm.lifetime.start.p0(i64 4, ptr %7) #4
  %8 = load i64, ptr %5, align 8
  %9 = trunc i64 %8 to i32
  store i32 %9, ptr %7, align 4
  %10 = load ptr, ptr %4, align 8
  %11 = getelementptr inbounds nuw %struct.job_record, ptr %10, i32 0, i32 30
  %12 = load ptr, ptr %11, align 8
  %13 = getelementptr inbounds nuw %struct.job_details_t, ptr %12, i32 0, i32 48
  %14 = load i8, ptr %13, align 1
  %15 = icmp ne i8 %14, 0
  br i1 %15, label %51, label %16

16:                                               ; preds = %3
  %17 = load ptr, ptr %4, align 8
  %18 = getelementptr inbounds nuw %struct.job_record, ptr %17, i32 0, i32 30
  %19 = load ptr, ptr %18, align 8
  %20 = getelementptr inbounds nuw %struct.job_details_t, ptr %19, i32 0, i32 15
  %21 = load i16, ptr %20, align 8
  %22 = zext i16 %21 to i32
  %23 = icmp sgt i32 %22, 1
  br i1 %23, label %24, label %51

24:                                               ; preds = %16
  %25 = load ptr, ptr %4, align 8
  %26 = getelementptr inbounds nuw %struct.job_record, ptr %25, i32 0, i32 30
  %27 = load ptr, ptr %26, align 8
  %28 = getelementptr inbounds nuw %struct.job_details_t, ptr %27, i32 0, i32 44
  %29 = load i16, ptr %28, align 4
  %30 = zext i16 %29 to i32
  %31 = icmp eq i32 %30, 0
  br i1 %31, label %32, label %41

32:                                               ; preds = %24
  %33 = load i32, ptr %7, align 4
  %34 = load ptr, ptr %4, align 8
  %35 = getelementptr inbounds nuw %struct.job_record, ptr %34, i32 0, i32 30
  %36 = load ptr, ptr %35, align 8
  %37 = getelementptr inbounds nuw %struct.job_details_t, ptr %36, i32 0, i32 15
  %38 = load i16, ptr %37, align 8
  %39 = zext i16 %38 to i32
  %40 = udiv i32 %33, %39
  store i32 %40, ptr %7, align 4
  br label %50

41:                                               ; preds = %24
  %42 = load ptr, ptr %4, align 8
  %43 = getelementptr inbounds nuw %struct.job_record, ptr %42, i32 0, i32 30
  %44 = load ptr, ptr %43, align 8
  %45 = getelementptr inbounds nuw %struct.job_details_t, ptr %44, i32 0, i32 44
  %46 = load i16, ptr %45, align 4
  %47 = zext i16 %46 to i32
  %48 = load i32, ptr %6, align 4
  %49 = mul i32 %47, %48
  store i32 %49, ptr %7, align 4
  br label %50

50:                                               ; preds = %41, %32
  br label %51

51:                                               ; preds = %50, %16, %3
  %52 = load i32, ptr %7, align 4
  %53 = zext i32 %52 to i64
  call void @llvm.lifetime.end.p0(i64 4, ptr %7) #4
  ret i64 %53
}