; Function Attrs: mustprogress nofree norecurse nosync nounwind willreturn memory(read, inaccessiblemem: none) uwtable
define dso_local range(i64 0, 4294967296) i64 @eval_nodes_set_max_tasks(ptr noundef readonly captures(none) %0, i64 noundef %1, i32 noundef %2) local_unnamed_addr #3 {
  %4 = trunc i64 %1 to i32
  %5 = getelementptr inbounds nuw i8, ptr %0, i64 216
  %6 = load ptr, ptr %5, align 8
  %7 = getelementptr inbounds nuw i8, ptr %6, i64 301
  %8 = load i8, ptr %7, align 1
  %.not = icmp eq i8 %8, 0
  br i1 %.not, label %9, label %23

9:                                                ; preds = %3
  %10 = getelementptr inbounds nuw i8, ptr %6, i64 96
  %11 = load i16, ptr %10, align 8
  %12 = zext i16 %11 to i32
  %13 = icmp ugt i16 %11, 1
  br i1 %13, label %14, label %23

14:                                               ; preds = %9
  %15 = getelementptr inbounds nuw i8, ptr %6, i64 292
  %16 = load i16, ptr %15, align 4
  %17 = icmp eq i16 %16, 0
  br i1 %17, label %18, label %20

18:                                               ; preds = %14
  %19 = udiv i32 %4, %12
  br label %23

20:                                               ; preds = %14
  %21 = zext i16 %16 to i32
  %22 = mul i32 %2, %21
  br label %23

23:                                               ; preds = %18, %20, %9, %3
  %.0 = phi i32 [ %4, %3 ], [ %19, %18 ], [ %22, %20 ], [ %4, %9 ]
  %24 = zext i32 %.0 to i64
  ret i64 %24
}